; Function Attrs: nounwind uwtable
define noundef ptr @Llb_Nonlin4SweepOrder(ptr noundef %0, ptr noundef writeonly %1, i32 noundef %2) local_unnamed_addr #2 {
  %4 = alloca i32, align 4
  call void @llvm.lifetime.start.p0(i64 4, ptr nonnull %4) #13
  store i32 0, ptr %4, align 4, !tbaa !25
  %5 = getelementptr i8, ptr %0, i64 32
  %.val38 = load ptr, ptr %5, align 8, !tbaa !28
  %6 = getelementptr i8, ptr %.val38, i64 4
  %.val38.val = load i32, ptr %6, align 4, !tbaa !29
  %7 = tail call noalias dereferenceable_or_null(16) ptr @malloc(i64 noundef 16) #14
  %8 = add i32 %.val38.val, -1
  %or.cond.i.i = icmp ult i32 %8, 15
  %spec.store.select.i.i = select i1 %or.cond.i.i, i32 16, i32 %.val38.val
  %9 = getelementptr inbounds nuw i8, ptr %7, i64 4
  store i32 %spec.store.select.i.i, ptr %7, align 8, !tbaa !31
  %.not.i.i = icmp eq i32 %spec.store.select.i.i, 0
  br i1 %.not.i.i, label %Vec_IntAlloc.exit.thread.i, label %Vec_IntAlloc.exit.i

Vec_IntAlloc.exit.thread.i:                       ; preds = %3
  %10 = getelementptr inbounds nuw i8, ptr %7, i64 8
  store ptr null, ptr %10, align 8, !tbaa !26
  store i32 %.val38.val, ptr %9, align 4, !tbaa !32
  br label %Vec_IntStartFull.exit

Vec_IntAlloc.exit.i:                              ; preds = %3
  %11 = sext i32 %spec.store.select.i.i to i64
  %12 = shl nsw i64 %11, 2
  %13 = tail call noalias ptr @malloc(i64 noundef %12) #14
  %14 = getelementptr inbounds nuw i8, ptr %7, i64 8
  store ptr %13, ptr %14, align 8, !tbaa !26
  store i32 %.val38.val, ptr %9, align 4, !tbaa !32
  %.not.i = icmp eq ptr %13, null
  br i1 %.not.i, label %Vec_IntStartFull.exit, label %15

15:                                               ; preds = %Vec_IntAlloc.exit.i
  %16 = sext i32 %.val38.val to i64
  %17 = shl nsw i64 %16, 2
  tail call void @llvm.memset.p0.i64(ptr nonnull align 4 %13, i8 -1, i64 %17, i1 false)
  br label %Vec_IntStartFull.exit

Vec_IntStartFull.exit:                            ; preds = %Vec_IntAlloc.exit.thread.i, %Vec_IntAlloc.exit.i, %15
  tail call void @Aig_ManIncrementTravId(ptr noundef nonnull %0) #13
  %18 = getelementptr i8, ptr %0, i64 48
  %.val39 = load ptr, ptr %18, align 8, !tbaa !33
  %19 = getelementptr i8, ptr %0, i64 312
  %.val = load i32, ptr %19, align 8, !tbaa !3
  %20 = getelementptr inbounds nuw i8, ptr %.val39, i64 32
  store i32 %.val, ptr %20, align 8, !tbaa !21
  %21 = getelementptr inbounds nuw i8, ptr %0, i64 24
  %22 = load ptr, ptr %21, align 8, !tbaa !34
  %23 = getelementptr i8, ptr %22, i64 4
  %.val3646 = load i32, ptr %23, align 4, !tbaa !29
  %24 = icmp sgt i32 %.val3646, 0
  br i1 %24, label %.lr.ph, label %.critedge.preheader

.lr.ph:                                           ; preds = %Vec_IntStartFull.exit
  %25 = getelementptr i8, ptr %7, i64 8
  br label %32

.critedge.preheader:                              ; preds = %32, %Vec_IntStartFull.exit
  %26 = getelementptr inbounds nuw i8, ptr %0, i64 16
  %27 = load ptr, ptr %26, align 8, !tbaa !35
  %28 = getelementptr i8, ptr %27, i64 4
  %.val3748 = load i32, ptr %28, align 4, !tbaa !29
  %29 = icmp sgt i32 %.val3748, 0
  br i1 %29, label %.lr.ph50, label %.critedge2

.lr.ph50:                                         ; preds = %.critedge.preheader
  %30 = getelementptr i8, ptr %27, i64 8
  %.val41 = load ptr, ptr %30, align 8, !tbaa !36
  %31 = getelementptr i8, ptr %7, i64 8
  %.val42 = load ptr, ptr %31, align 8, !tbaa !26
  br label %50

32:                                               ; preds = %.lr.ph, %32
  %indvars.iv = phi i64 [ 0, %.lr.ph ], [ %indvars.iv.next, %32 ]
  %33 = phi ptr [ %22, %.lr.ph ], [ %46, %32 ]
  %34 = getelementptr i8, ptr %33, i64 8
  %.val40 = load ptr, ptr %34, align 8, !tbaa !36
  %35 = getelementptr inbounds nuw ptr, ptr %.val40, i64 %indvars.iv
  %36 = load ptr, ptr %35, align 8, !tbaa !37
  %37 = getelementptr i8, ptr %36, i64 36
  %.val32 = load i32, ptr %37, align 4, !tbaa !24
  %38 = load i32, ptr %4, align 4, !tbaa !25
  %39 = add nsw i32 %38, 1
  store i32 %39, ptr %4, align 4, !tbaa !25
  %.val34 = load ptr, ptr %25, align 8, !tbaa !26
  %40 = sext i32 %.val32 to i64
  %41 = getelementptr inbounds i32, ptr %.val34, i64 %40
  store i32 %38, ptr %41, align 4, !tbaa !25
  %42 = getelementptr i8, ptr %36, i64 8
  %.val35 = load ptr, ptr %42, align 8, !tbaa !22
  %43 = ptrtoint ptr %.val35 to i64
  %44 = and i64 %43, -2
  %45 = inttoptr i64 %44 to ptr
  call void @Llb_Nonlin4SweepOrder_rec(ptr noundef nonnull %0, ptr noundef %45, ptr noundef nonnull %7, ptr noundef nonnull %4, i32 noundef %2)
  %indvars.iv.next = add nuw nsw i64 %indvars.iv, 1
  %46 = load ptr, ptr %21, align 8, !tbaa !34
  %47 = getelementptr i8, ptr %46, i64 4
  %.val36 = load i32, ptr %47, align 4, !tbaa !29
  %48 = sext i32 %.val36 to i64
  %49 = icmp slt i64 %indvars.iv.next, %48
  br i1 %49, label %32, label %.critedge.preheader, !llvm.loop !38

50:                                               ; preds = %.lr.ph50, %.critedge
  %.val3755 = phi i32 [ %.val3748, %.lr.ph50 ], [ %.val37, %.critedge ]
  %indvars.iv52 = phi i64 [ 0, %.lr.ph50 ], [ %indvars.iv.next53, %.critedge ]
  %51 = getelementptr inbounds nuw ptr, ptr %.val41, i64 %indvars.iv52
  %52 = load ptr, ptr %51, align 8, !tbaa !37
  %53 = getelementptr i8, ptr %52, i64 36
  %.val43 = load i32, ptr %53, align 4, !tbaa !24
  %54 = sext i32 %.val43 to i64
  %55 = getelementptr inbounds i32, ptr %.val42, i64 %54
  %56 = load i32, ptr %55, align 4, !tbaa !25
  %57 = icmp slt i32 %56, 0
  br i1 %57, label %58, label %.critedge

58:                                               ; preds = %50
  %59 = load i32, ptr %4, align 4, !tbaa !25
  %60 = add nsw i32 %59, 1
  store i32 %60, ptr %4, align 4, !tbaa !25
  store i32 %59, ptr %55, align 4, !tbaa !25
  %.val37.pre = load i32, ptr %28, align 4, !tbaa !29
  br label %.critedge

.critedge:                                        ; preds = %50, %58
  %.val37 = phi i32 [ %.val3755, %50 ], [ %.val37.pre, %58 ]
  %indvars.iv.next53 = add nuw nsw i64 %indvars.iv52, 1
  %61 = sext i32 %.val37 to i64
  %62 = icmp slt i64 %indvars.iv.next53, %61
  br i1 %62, label %50, label %.critedge2, !llvm.loop !40

.critedge2:                                       ; preds = %.critedge, %.critedge.preheader
  %.not = icmp eq ptr %1, null
  br i1 %.not, label %69, label %63

63:                                               ; preds = %.critedge2
  %64 = load i32, ptr %4, align 4, !tbaa !25
  %65 = getelementptr i8, ptr %0, i64 136
  %.val44 = load i32, ptr %65, align 8, !tbaa !25
  %66 = getelementptr i8, ptr %0, i64 140
  %.val45 = load i32, ptr %66, align 4, !tbaa !25
  %67 = add i32 %.val44, %.val45
  %68 = sub i32 %64, %67
  store i32 %68, ptr %1, align 4, !tbaa !25
  br label %69

69:                                               ; preds = %63, %.critedge2
  call void @llvm.lifetime.end.p0(i64 4, ptr nonnull %4) #13
  ret ptr %7
}